; Function Attrs: mustprogress nounwind uwtable
define dso_local void @_ZN36btCompoundCompoundCollisionAlgorithmD2Ev(ptr noundef nonnull align 8 dereferenceable(184) %this) unnamed_addr #2 align 2 personality ptr @__gxx_personality_v0 {
entry:
  store ptr getelementptr inbounds ({ [7 x ptr] }, ptr @_ZTV36btCompoundCompoundCollisionAlgorithm, i64 0, i32 0, i64 2), ptr %this, align 8
  %m_childCollisionAlgorithmCache.i = getelementptr inbounds i8, ptr %this, i64 136
  %0 = load ptr, ptr %m_childCollisionAlgorithmCache.i, align 8
  %m_size.i.i = getelementptr inbounds i8, ptr %0, i64 12
  %1 = load i32, ptr %m_size.i.i, align 4
  %cmp10.i = icmp sgt i32 %1, 0
  br i1 %cmp10.i, label %for.body.lr.ph.i, label %for.end.i

for.body.lr.ph.i:                                 ; preds = %entry
  %m_data.i.i = getelementptr inbounds i8, ptr %0, i64 24
  %m_dispatcher.i = getelementptr inbounds i8, ptr %this, i64 8
  %wide.trip.count.i = zext nneg i32 %1 to i64
  br label %for.body.i

for.body.i:                                       ; preds = %for.inc.i, %for.body.lr.ph.i
  %indvars.iv.i = phi i64 [ 0, %for.body.lr.ph.i ], [ %indvars.iv.next.i, %for.inc.i ]
  %2 = load ptr, ptr %m_data.i.i, align 8
  %3 = getelementptr inbounds %struct.btSimplePair, ptr %2, i64 %indvars.iv.i, i32 2
  %4 = load ptr, ptr %3, align 8
  %tobool.not.i = icmp eq ptr %4, null
  br i1 %tobool.not.i, label %for.inc.i, label %if.then.i

if.then.i:                                        ; preds = %for.body.i
  %vtable.i = load ptr, ptr %4, align 8
  %5 = load ptr, ptr %vtable.i, align 8
  tail call void %5(ptr noundef nonnull align 8 dereferenceable(16) %4) #13
  %6 = load ptr, ptr %m_dispatcher.i, align 8
  %vtable5.i = load ptr, ptr %6, align 8
  %vfn6.i = getelementptr inbounds i8, ptr %vtable5.i, i64 120
  %7 = load ptr, ptr %vfn6.i, align 8
  invoke void %7(ptr noundef nonnull align 8 dereferenceable(8) %6, ptr noundef nonnull %4)
          to label %for.inc.i unwind label %terminate.lpad.loopexit

for.inc.i:                                        ; preds = %if.then.i, %for.body.i
  %indvars.iv.next.i = add nuw nsw i64 %indvars.iv.i, 1
  %exitcond.not.i = icmp eq i64 %indvars.iv.next.i, %wide.trip.count.i
  br i1 %exitcond.not.i, label %for.end.loopexit.i, label %for.body.i, !llvm.loop !5

for.end.loopexit.i:                               ; preds = %for.inc.i
  %.pre.i = load ptr, ptr %m_childCollisionAlgorithmCache.i, align 8
  br label %for.end.i

for.end.i:                                        ; preds = %for.end.loopexit.i, %entry
  %8 = phi ptr [ %.pre.i, %for.end.loopexit.i ], [ %0, %entry ]
  invoke void @_ZN23btHashedSimplePairCache14removeAllPairsEv(ptr noundef nonnull align 8 dereferenceable(104) %8)
          to label %invoke.cont unwind label %terminate.lpad.loopexit.split-lp

invoke.cont:                                      ; preds = %for.end.i
  %9 = load ptr, ptr %m_childCollisionAlgorithmCache.i, align 8
  %vtable = load ptr, ptr %9, align 8
  %10 = load ptr, ptr %vtable, align 8
  tail call void %10(ptr noundef nonnull align 8 dereferenceable(104) %9) #13
  %11 = load ptr, ptr %m_childCollisionAlgorithmCache.i, align 8
  invoke void @_Z21btAlignedFreeInternalPv(ptr noundef %11)
          to label %invoke.cont3 unwind label %terminate.lpad.loopexit.split-lp

invoke.cont3:                                     ; preds = %invoke.cont
  %m_data.i.i.i = getelementptr inbounds i8, ptr %this, i64 160
  %12 = load ptr, ptr %m_data.i.i.i, align 8
  %tobool.not.i.i.i = icmp eq ptr %12, null
  br i1 %tobool.not.i.i.i, label %_ZN20btAlignedObjectArrayI12btSimplePairED2Ev.exit, label %if.then.i.i.i

if.then.i.i.i:                                    ; preds = %invoke.cont3
  %m_ownsMemory.i.i.i = getelementptr inbounds i8, ptr %this, i64 168
  %13 = load i8, ptr %m_ownsMemory.i.i.i, align 8
  %14 = and i8 %13, 1
  %tobool2.not.i.i.i = icmp eq i8 %14, 0
  br i1 %tobool2.not.i.i.i, label %_ZN20btAlignedObjectArrayI12btSimplePairED2Ev.exit, label %if.then3.i.i.i

if.then3.i.i.i:                                   ; preds = %if.then.i.i.i
  invoke void @_Z21btAlignedFreeInternalPv(ptr noundef nonnull %12)
          to label %_ZN20btAlignedObjectArrayI12btSimplePairED2Ev.exit unwind label %terminate.lpad.i

terminate.lpad.i:                                 ; preds = %if.then3.i.i.i
  %15 = landingpad { ptr, i32 }
          catch ptr null
  %16 = extractvalue { ptr, i32 } %15, 0
  tail call void @__clang_call_terminate(ptr %16) #14
  unreachable

_ZN20btAlignedObjectArrayI12btSimplePairED2Ev.exit: ; preds = %invoke.cont3, %if.then.i.i.i, %if.then3.i.i.i
  %m_size.i.i.i = getelementptr inbounds i8, ptr %this, i64 148
  %m_ownsMemory.i1.i.i = getelementptr inbounds i8, ptr %this, i64 168
  store i8 1, ptr %m_ownsMemory.i1.i.i, align 8
  store ptr null, ptr %m_data.i.i.i, align 8
  store i32 0, ptr %m_size.i.i.i, align 4
  %m_capacity.i.i.i = getelementptr inbounds i8, ptr %this, i64 152
  store i32 0, ptr %m_capacity.i.i.i, align 8
  tail call void @_ZN28btCompoundCollisionAlgorithmD2Ev(ptr noundef nonnull align 8 dereferenceable(136) %this) #13
  ret void

terminate.lpad.loopexit:                          ; preds = %if.then.i
  %lpad.loopexit = landingpad { ptr, i32 }
          catch ptr null
  br label %terminate.lpad

terminate.lpad.loopexit.split-lp:                 ; preds = %invoke.cont, %for.end.i
  %lpad.loopexit.split-lp = landingpad { ptr, i32 }
          catch ptr null
  br label %terminate.lpad

terminate.lpad:                                   ; preds = %terminate.lpad.loopexit.split-lp, %terminate.lpad.loopexit
  %lpad.phi = phi { ptr, i32 } [ %lpad.loopexit, %terminate.lpad.loopexit ], [ %lpad.loopexit.split-lp, %terminate.lpad.loopexit.split-lp ]
  %17 = extractvalue { ptr, i32 } %lpad.phi, 0
  tail call void @__clang_call_terminate(ptr %17) #14
  unreachable
}